target datalayout = "e-m:e-p270:32:32-p271:32:32-p272:64:64-i64:64-i128:128-f80:128-n8:16:32:64-S128"
target triple = "x86_64-unknown-linux-gnu"

%class.ptr_hash_entry = type { i32, ptr }
%"class.core_hashtable<ptr_hash_entry<smt::enode>, smt::theory_array_base::sel_hash, smt::theory_array_base::sel_eq>::iterator" = type { ptr, ptr }
%class.core_hashtable.376 = type <{ ptr, i32, i32, i32, [4 x i8] }>

; Function Attrs: mustprogress nounwind uwtable
define linkonce_odr hidden noundef zeroext i1 @_ZNK14ptr_hash_entryIN3smt5enodeEE7is_usedEv(ptr noundef nonnull align 8 dereferenceable(16) %this) #4 comdat align 2 {
entry:
  %this.addr = alloca ptr, align 8
  store ptr %this, ptr %this.addr, align 8
  %this1 = load ptr, ptr %this.addr, align 8
  %m_ptr = getelementptr inbounds %class.ptr_hash_entry, ptr %this1, i32 0, i32 1
  %0 = load ptr, ptr %m_ptr, align 8
  %cmp = icmp ne ptr %0, null
  br i1 %cmp, label %land.rhs, label %land.end

land.rhs:                                         ; preds = %entry
  %m_ptr2 = getelementptr inbounds %class.ptr_hash_entry, ptr %this1, i32 0, i32 1
  %1 = load ptr, ptr %m_ptr2, align 8
  %cmp3 = icmp ne ptr %1, inttoptr (i64 1 to ptr)
  br label %land.end

land.end:                                         ; preds = %land.rhs, %entry
  %2 = phi i1 [ false, %entry ], [ %cmp3, %land.rhs ]
  ret i1 %2
}

; Function Attrs: mustprogress nounwind uwtable
define linkonce_odr hidden void @_ZN14core_hashtableI14ptr_hash_entryIN3smt5enodeEENS1_17theory_array_base8sel_hashENS4_6sel_eqEE8iterator12move_to_usedEv(ptr noundef nonnull align 8 dereferenceable(16) %this) #4 comdat align 2 {
entry:
  %this.addr = alloca ptr, align 8
  store ptr %this, ptr %this.addr, align 8
  %this1 = load ptr, ptr %this.addr, align 8
  br label %while.cond

while.cond:                                       ; preds = %while.body, %entry
  %m_curr = getelementptr inbounds %"class.core_hashtable<ptr_hash_entry<smt::enode>, smt::theory_array_base::sel_hash, smt::theory_array_base::sel_eq>::iterator", ptr %this1, i32 0, i32 0
  %0 = load ptr, ptr %m_curr, align 8
  %m_end = getelementptr inbounds %"class.core_hashtable<ptr_hash_entry<smt::enode>, smt::theory_array_base::sel_hash, smt::theory_array_base::sel_eq>::iterator", ptr %this1, i32 0, i32 1
  %1 = load ptr, ptr %m_end, align 8
  %cmp = icmp ne ptr %0, %1
  br i1 %cmp, label %land.rhs, label %land.end

land.rhs:                                         ; preds = %while.cond
  %m_curr2 = getelementptr inbounds %"class.core_hashtable<ptr_hash_entry<smt::enode>, smt::theory_array_base::sel_hash, smt::theory_array_base::sel_eq>::iterator", ptr %this1, i32 0, i32 0
  %2 = load ptr, ptr %m_curr2, align 8
  %call = call noundef zeroext i1 @_ZNK14ptr_hash_entryIN3smt5enodeEE7is_usedEv(ptr noundef nonnull align 8 dereferenceable(16) %2)
  %lnot = xor i1 %call, true
  br label %land.end

land.end:                                         ; preds = %land.rhs, %while.cond
  %3 = phi i1 [ false, %while.cond ], [ %lnot, %land.rhs ]
  br i1 %3, label %while.body, label %while.end

while.body:                                       ; preds = %land.end
  %m_curr3 = getelementptr inbounds %"class.core_hashtable<ptr_hash_entry<smt::enode>, smt::theory_array_base::sel_hash, smt::theory_array_base::sel_eq>::iterator", ptr %this1, i32 0, i32 0
  %4 = load ptr, ptr %m_curr3, align 8
  %incdec.ptr = getelementptr inbounds %class.ptr_hash_entry, ptr %4, i32 1
  store ptr %incdec.ptr, ptr %m_curr3, align 8
  br label %while.cond, !llvm.loop !97

while.end:                                        ; preds = %land.end
  ret void
}

; Function Attrs: mustprogress nounwind uwtable
define linkonce_odr hidden noundef nonnull align 8 dereferenceable(8) ptr @_ZN14ptr_hash_entryIN3smt5enodeEE8get_dataEv(ptr noundef nonnull align 8 dereferenceable(16) %this) #4 comdat align 2 {
entry:
  %this.addr = alloca ptr, align 8
  store ptr %this, ptr %this.addr, align 8
  %this1 = load ptr, ptr %this.addr, align 8
  %m_ptr = getelementptr inbounds %class.ptr_hash_entry, ptr %this1, i32 0, i32 1
  ret ptr %m_ptr
}

; Function Attrs: mustprogress uwtable
define linkonce_odr hidden void @_ZN14core_hashtableI14ptr_hash_entryIN3smt5enodeEENS1_17theory_array_base8sel_hashENS4_6sel_eqEE8iteratorC2EPS3_S9_(ptr noundef nonnull align 8 dereferenceable(16) %this, ptr noundef %start, ptr noundef %end) unnamed_addr #5 comdat align 2 {
entry:
  %this.addr = alloca ptr, align 8
  %start.addr = alloca ptr, align 8
  %end.addr = alloca ptr, align 8
  store ptr %this, ptr %this.addr, align 8
  store ptr %start, ptr %start.addr, align 8
  store ptr %end, ptr %end.addr, align 8
  %this1 = load ptr, ptr %this.addr, align 8
  %m_curr = getelementptr inbounds %"class.core_hashtable<ptr_hash_entry<smt::enode>, smt::theory_array_base::sel_hash, smt::theory_array_base::sel_eq>::iterator", ptr %this1, i32 0, i32 0
  %0 = load ptr, ptr %start.addr, align 8
  store ptr %0, ptr %m_curr, align 8
  %m_end = getelementptr inbounds %"class.core_hashtable<ptr_hash_entry<smt::enode>, smt::theory_array_base::sel_hash, smt::theory_array_base::sel_eq>::iterator", ptr %this1, i32 0, i32 1
  %1 = load ptr, ptr %end.addr, align 8
  store ptr %1, ptr %m_end, align 8
  call void @_ZN14core_hashtableI14ptr_hash_entryIN3smt5enodeEENS1_17theory_array_base8sel_hashENS4_6sel_eqEE8iterator12move_to_usedEv(ptr noundef nonnull align 8 dereferenceable(16) %this1)
  ret void
}

; Function Attrs: mustprogress nounwind uwtable
define linkonce_odr hidden noundef nonnull align 8 dereferenceable(16) ptr @_ZN14core_hashtableI14ptr_hash_entryIN3smt5enodeEENS1_17theory_array_base8sel_hashENS4_6sel_eqEE8iteratorppEv(ptr noundef nonnull align 8 dereferenceable(16) %this) #4 comdat align 2 {
entry:
  %this.addr = alloca ptr, align 8
  store ptr %this, ptr %this.addr, align 8
  %this1 = load ptr, ptr %this.addr, align 8
  %m_curr = getelementptr inbounds %"class.core_hashtable<ptr_hash_entry<smt::enode>, smt::theory_array_base::sel_hash, smt::theory_array_base::sel_eq>::iterator", ptr %this1, i32 0, i32 0
  %0 = load ptr, ptr %m_curr, align 8
  %incdec.ptr = getelementptr inbounds %class.ptr_hash_entry, ptr %0, i32 1
  store ptr %incdec.ptr, ptr %m_curr, align 8
  call void @_ZN14core_hashtableI14ptr_hash_entryIN3smt5enodeEENS1_17theory_array_base8sel_hashENS4_6sel_eqEE8iterator12move_to_usedEv(ptr noundef nonnull align 8 dereferenceable(16) %this1)
  ret ptr %this1
}

; Function Attrs: mustprogress nounwind uwtable
define linkonce_odr hidden noundef nonnull align 8 dereferenceable(8) ptr @_ZN14core_hashtableI14ptr_hash_entryIN3smt5enodeEENS1_17theory_array_base8sel_hashENS4_6sel_eqEE8iteratordeEv(ptr noundef nonnull align 8 dereferenceable(16) %this) #4 comdat align 2 {
entry:
  %this.addr = alloca ptr, align 8
  store ptr %this, ptr %this.addr, align 8
  %this1 = load ptr, ptr %this.addr, align 8
  %m_curr = getelementptr inbounds %"class.core_hashtable<ptr_hash_entry<smt::enode>, smt::theory_array_base::sel_hash, smt::theory_array_base::sel_eq>::iterator", ptr %this1, i32 0, i32 0
  %0 = load ptr, ptr %m_curr, align 8
  %call = call noundef nonnull align 8 dereferenceable(8) ptr @_ZN14ptr_hash_entryIN3smt5enodeEE8get_dataEv(ptr noundef nonnull align 8 dereferenceable(16) %0)
  ret ptr %call
}

; Function Attrs: mustprogress nounwind uwtable
define linkonce_odr hidden noundef zeroext i1 @_ZNK14core_hashtableI14ptr_hash_entryIN3smt5enodeEENS1_17theory_array_base8sel_hashENS4_6sel_eqEE8iteratorneERKS8_(ptr noundef nonnull align 8 dereferenceable(16) %this, ptr noundef nonnull align 8 dereferenceable(16) %it) #4 comdat align 2 {
entry:
  %this.addr = alloca ptr, align 8
  %it.addr = alloca ptr, align 8
  store ptr %this, ptr %this.addr, align 8
  store ptr %it, ptr %it.addr, align 8
  %this1 = load ptr, ptr %this.addr, align 8
  %m_curr = getelementptr inbounds %"class.core_hashtable<ptr_hash_entry<smt::enode>, smt::theory_array_base::sel_hash, smt::theory_array_base::sel_eq>::iterator", ptr %this1, i32 0, i32 0
  %0 = load ptr, ptr %m_curr, align 8
  %1 = load ptr, ptr %it.addr, align 8
  %m_curr2 = getelementptr inbounds %"class.core_hashtable<ptr_hash_entry<smt::enode>, smt::theory_array_base::sel_hash, smt::theory_array_base::sel_eq>::iterator", ptr %1, i32 0, i32 0
  %2 = load ptr, ptr %m_curr2, align 8
  %cmp = icmp ne ptr %0, %2
  ret i1 %cmp
}

; Function Attrs: mustprogress uwtable
define linkonce_odr hidden { ptr, ptr } @_ZNK14core_hashtableI14ptr_hash_entryIN3smt5enodeEENS1_17theory_array_base8sel_hashENS4_6sel_eqEE3endEv(ptr noundef nonnull align 8 dereferenceable(20) %this) #5 comdat align 2 {
entry:
  %retval = alloca %"class.core_hashtable<ptr_hash_entry<smt::enode>, smt::theory_array_base::sel_hash, smt::theory_array_base::sel_eq>::iterator", align 8
  %this.addr = alloca ptr, align 8
  store ptr %this, ptr %this.addr, align 8
  %this1 = load ptr, ptr %this.addr, align 8
  %m_table = getelementptr inbounds %class.core_hashtable.376, ptr %this1, i32 0, i32 0
  %0 = load ptr, ptr %m_table, align 8
  %m_capacity = getelementptr inbounds %class.core_hashtable.376, ptr %this1, i32 0, i32 1
  %1 = load i32, ptr %m_capacity, align 8
  %idx.ext = zext i32 %1 to i64
  %add.ptr = getelementptr inbounds %class.ptr_hash_entry, ptr %0, i64 %idx.ext
  %m_table2 = getelementptr inbounds %class.core_hashtable.376, ptr %this1, i32 0, i32 0
  %2 = load ptr, ptr %m_table2, align 8
  %m_capacity3 = getelementptr inbounds %class.core_hashtable.376, ptr %this1, i32 0, i32 1
  %3 = load i32, ptr %m_capacity3, align 8
  %idx.ext4 = zext i32 %3 to i64
  %add.ptr5 = getelementptr inbounds %class.ptr_hash_entry, ptr %2, i64 %idx.ext4
  call void @_ZN14core_hashtableI14ptr_hash_entryIN3smt5enodeEENS1_17theory_array_base8sel_hashENS4_6sel_eqEE8iteratorC2EPS3_S9_(ptr noundef nonnull align 8 dereferenceable(16) %retval, ptr noundef %add.ptr, ptr noundef %add.ptr5)
  %4 = load { ptr, ptr }, ptr %retval, align 8
  ret { ptr, ptr } %4
}

; Function Attrs: mustprogress uwtable
define linkonce_odr hidden { ptr, ptr } @_ZNK14core_hashtableI14ptr_hash_entryIN3smt5enodeEENS1_17theory_array_base8sel_hashENS4_6sel_eqEE5beginEv(ptr noundef nonnull align 8 dereferenceable(20) %this) #5 comdat align 2 {
entry:
  %retval = alloca %"class.core_hashtable<ptr_hash_entry<smt::enode>, smt::theory_array_base::sel_hash, smt::theory_array_base::sel_eq>::iterator", align 8
  %this.addr = alloca ptr, align 8
  store ptr %this, ptr %this.addr, align 8
  %this1 = load ptr, ptr %this.addr, align 8
  %m_table = getelementptr inbounds %class.core_hashtable.376, ptr %this1, i32 0, i32 0
  %0 = load ptr, ptr %m_table, align 8
  %m_table2 = getelementptr inbounds %class.core_hashtable.376, ptr %this1, i32 0, i32 0
  %1 = load ptr, ptr %m_table2, align 8
  %m_capacity = getelementptr inbounds %class.core_hashtable.376, ptr %this1, i32 0, i32 1
  %2 = load i32, ptr %m_capacity, align 8
  %idx.ext = zext i32 %2 to i64
  %add.ptr = getelementptr inbounds %class.ptr_hash_entry, ptr %1, i64 %idx.ext
  call void @_ZN14core_hashtableI14ptr_hash_entryIN3smt5enodeEENS1_17theory_array_base8sel_hashENS4_6sel_eqEE8iteratorC2EPS3_S9_(ptr noundef nonnull align 8 dereferenceable(16) %retval, ptr noundef %0, ptr noundef %add.ptr)
  %3 = load { ptr, ptr }, ptr %retval, align 8
  ret { ptr, ptr } %3
}

; Function Attrs: mustprogress uwtable
define hidden void @_ZN3smt17theory_array_base34propagate_selects_to_store_parentsEPNS_5enodeER7svectorISt4pairIS2_S2_EjE(ptr noundef nonnull align 8 dereferenceable(249) %this, ptr noundef %r, ptr noundef nonnull align 8 dereferenceable(8) %todo) #5 align 2 {
entry:
  %this.addr = alloca ptr, align 8
  %r.addr = alloca ptr, align 8
  %todo.addr = alloca ptr, align 8
  %sel_set = alloca ptr, align 8
  %__range1 = alloca ptr, align 8
  %__begin1 = alloca %"class.core_hashtable<ptr_hash_entry<smt::enode>, smt::theory_array_base::sel_hash, smt::theory_array_base::sel_eq>::iterator", align 8
  %__end1 = alloca %"class.core_hashtable<ptr_hash_entry<smt::enode>, smt::theory_array_base::sel_hash, smt::theory_array_base::sel_eq>::iterator", align 8
  %sel = alloca ptr, align 8
  store ptr %this, ptr %this.addr, align 8
  store ptr %r, ptr %r.addr, align 8
  store ptr %todo, ptr %todo.addr, align 8
  %this1 = load ptr, ptr %this.addr, align 8
  %0 = load ptr, ptr %r.addr, align 8
  %call = call noundef ptr @_ZN3smt17theory_array_base14get_select_setEPNS_5enodeE(ptr noundef nonnull align 8 dereferenceable(249) %this1, ptr noundef %0)
  store ptr %call, ptr %sel_set, align 8
  %1 = load ptr, ptr %sel_set, align 8
  store ptr %1, ptr %__range1, align 8
  %2 = load ptr, ptr %__range1, align 8
  %call2 = call { ptr, ptr } @_ZNK14core_hashtableI14ptr_hash_entryIN3smt5enodeEENS1_17theory_array_base8sel_hashENS4_6sel_eqEE5beginEv(ptr noundef nonnull align 8 dereferenceable(20) %2)
  %3 = getelementptr inbounds { ptr, ptr }, ptr %__begin1, i32 0, i32 0
  %4 = extractvalue { ptr, ptr } %call2, 0
  store ptr %4, ptr %3, align 8
  %5 = getelementptr inbounds { ptr, ptr }, ptr %__begin1, i32 0, i32 1
  %6 = extractvalue { ptr, ptr } %call2, 1
  store ptr %6, ptr %5, align 8
  %7 = load ptr, ptr %__range1, align 8
  %call3 = call { ptr, ptr } @_ZNK14core_hashtableI14ptr_hash_entryIN3smt5enodeEENS1_17theory_array_base8sel_hashENS4_6sel_eqEE3endEv(ptr noundef nonnull align 8 dereferenceable(20) %7)
  %8 = getelementptr inbounds { ptr, ptr }, ptr %__end1, i32 0, i32 0
  %9 = extractvalue { ptr, ptr } %call3, 0
  store ptr %9, ptr %8, align 8
  %10 = getelementptr inbounds { ptr, ptr }, ptr %__end1, i32 0, i32 1
  %11 = extractvalue { ptr, ptr } %call3, 1
  store ptr %11, ptr %10, align 8
  br label %for.cond

for.cond:                                         ; preds = %for.inc, %entry
  %call4 = call noundef zeroext i1 @_ZNK14core_hashtableI14ptr_hash_entryIN3smt5enodeEENS1_17theory_array_base8sel_hashENS4_6sel_eqEE8iteratorneERKS8_(ptr noundef nonnull align 8 dereferenceable(16) %__begin1, ptr noundef nonnull align 8 dereferenceable(16) %__end1)
  br i1 %call4, label %for.body, label %for.end

for.body:                                         ; preds = %for.cond
  %call5 = call noundef nonnull align 8 dereferenceable(8) ptr @_ZN14core_hashtableI14ptr_hash_entryIN3smt5enodeEENS1_17theory_array_base8sel_hashENS4_6sel_eqEE8iteratordeEv(ptr noundef nonnull align 8 dereferenceable(16) %__begin1)
  %12 = load ptr, ptr %call5, align 8
  store ptr %12, ptr %sel, align 8
  %13 = load ptr, ptr %r.addr, align 8
  %14 = load ptr, ptr %sel, align 8
  %15 = load ptr, ptr %todo.addr, align 8
  call void @_ZN3smt17theory_array_base33propagate_select_to_store_parentsEPNS_5enodeES2_R7svectorISt4pairIS2_S2_EjE(ptr noundef nonnull align 8 dereferenceable(249) %this1, ptr noundef %13, ptr noundef %14, ptr noundef nonnull align 8 dereferenceable(8) %15)
  br label %for.inc

for.inc:                                          ; preds = %for.body
  %call6 = call noundef nonnull align 8 dereferenceable(16) ptr @_ZN14core_hashtableI14ptr_hash_entryIN3smt5enodeEENS1_17theory_array_base8sel_hashENS4_6sel_eqEE8iteratorppEv(ptr noundef nonnull align 8 dereferenceable(16) %__begin1)
  br label %for.cond

for.end:                                          ; preds = %for.cond
  ret void
}