; Function Attrs: mustprogress uwtable
define hidden void @_ZN3smt17theory_array_base34propagate_selects_to_store_parentsEPNS_5enodeER7svectorISt4pairIS2_S2_EjE(ptr noundef nonnull align 8 dereferenceable(249) %this, ptr noundef %r, ptr noundef nonnull align 8 dereferenceable(8) %todo) local_unnamed_addr #3 align 2 {
entry:
  %call = tail call noundef ptr @_ZN3smt17theory_array_base14get_select_setEPNS_5enodeE(ptr noundef nonnull align 8 dereferenceable(249) %this, ptr noundef %r)
  %0 = load ptr, ptr %call, align 8
  %m_capacity.i = getelementptr inbounds i8, ptr %call, i64 8
  %1 = load i32, ptr %m_capacity.i, align 8
  %idx.ext.i = zext i32 %1 to i64
  %add.ptr.i = getelementptr inbounds %class.ptr_hash_entry, ptr %0, i64 %idx.ext.i
  %cmp.not2.i.i.i = icmp eq i32 %1, 0
  br i1 %cmp.not2.i.i.i, label %_ZNK14core_hashtableI14ptr_hash_entryIN3smt5enodeEENS1_17theory_array_base8sel_hashENS4_6sel_eqEE5beginEv.exit, label %land.rhs.i.i.i

land.rhs.i.i.i:                                   ; preds = %entry, %while.body.i.i.i
  %retval.sroa.0.0.i = phi ptr [ %incdec.ptr.i.i.i, %while.body.i.i.i ], [ %0, %entry ]
  %m_ptr.i.i.i.i = getelementptr inbounds i8, ptr %retval.sroa.0.0.i, i64 8
  %2 = load ptr, ptr %m_ptr.i.i.i.i, align 8
  %switch.i.i.i = icmp ult ptr %2, inttoptr (i64 2 to ptr)
  br i1 %switch.i.i.i, label %while.body.i.i.i, label %_ZNK14core_hashtableI14ptr_hash_entryIN3smt5enodeEENS1_17theory_array_base8sel_hashENS4_6sel_eqEE5beginEv.exit

while.body.i.i.i:                                 ; preds = %land.rhs.i.i.i
  %incdec.ptr.i.i.i = getelementptr inbounds i8, ptr %retval.sroa.0.0.i, i64 16
  %cmp.not.i.i.i = icmp eq ptr %incdec.ptr.i.i.i, %add.ptr.i
  br i1 %cmp.not.i.i.i, label %for.end, label %land.rhs.i.i.i, !llvm.loop !47

_ZNK14core_hashtableI14ptr_hash_entryIN3smt5enodeEENS1_17theory_array_base8sel_hashENS4_6sel_eqEE5beginEv.exit: ; preds = %land.rhs.i.i.i, %entry
  %retval.sroa.0.1.i = phi ptr [ %0, %entry ], [ %retval.sroa.0.0.i, %land.rhs.i.i.i ]
  %cmp.i.not10 = icmp eq ptr %retval.sroa.0.1.i, %add.ptr.i
  br i1 %cmp.i.not10, label %for.end, label %for.body

for.body:                                         ; preds = %_ZNK14core_hashtableI14ptr_hash_entryIN3smt5enodeEENS1_17theory_array_base8sel_hashENS4_6sel_eqEE5beginEv.exit, %_ZN14core_hashtableI14ptr_hash_entryIN3smt5enodeEENS1_17theory_array_base8sel_hashENS4_6sel_eqEE8iteratorppEv.exit
  %__begin1.sroa.0.011 = phi ptr [ %__begin1.sroa.0.1, %_ZN14core_hashtableI14ptr_hash_entryIN3smt5enodeEENS1_17theory_array_base8sel_hashENS4_6sel_eqEE8iteratorppEv.exit ], [ %retval.sroa.0.1.i, %_ZNK14core_hashtableI14ptr_hash_entryIN3smt5enodeEENS1_17theory_array_base8sel_hashENS4_6sel_eqEE5beginEv.exit ]
  %m_ptr.i.i = getelementptr inbounds i8, ptr %__begin1.sroa.0.011, i64 8
  %3 = load ptr, ptr %m_ptr.i.i, align 8
  tail call void @_ZN3smt17theory_array_base33propagate_select_to_store_parentsEPNS_5enodeES2_R7svectorISt4pairIS2_S2_EjE(ptr noundef nonnull align 8 dereferenceable(249) %this, ptr noundef %r, ptr noundef %3, ptr noundef nonnull align 8 dereferenceable(8) %todo)
  %incdec.ptr.i = getelementptr inbounds i8, ptr %__begin1.sroa.0.011, i64 16
  %cmp.not2.i.i = icmp eq ptr %incdec.ptr.i, %add.ptr.i
  br i1 %cmp.not2.i.i, label %for.end, label %land.rhs.i.i

land.rhs.i.i:                                     ; preds = %for.body, %while.body.i.i
  %__begin1.sroa.0.1 = phi ptr [ %incdec.ptr.i.i, %while.body.i.i ], [ %incdec.ptr.i, %for.body ]
  %m_ptr.i.i.i = getelementptr inbounds i8, ptr %__begin1.sroa.0.1, i64 8
  %4 = load ptr, ptr %m_ptr.i.i.i, align 8
  %switch.i.i = icmp ult ptr %4, inttoptr (i64 2 to ptr)
  br i1 %switch.i.i, label %while.body.i.i, label %_ZN14core_hashtableI14ptr_hash_entryIN3smt5enodeEENS1_17theory_array_base8sel_hashENS4_6sel_eqEE8iteratorppEv.exit

while.body.i.i:                                   ; preds = %land.rhs.i.i
  %incdec.ptr.i.i = getelementptr inbounds i8, ptr %__begin1.sroa.0.1, i64 16
  %cmp.not.i.i = icmp eq ptr %incdec.ptr.i.i, %add.ptr.i
  br i1 %cmp.not.i.i, label %for.end, label %land.rhs.i.i, !llvm.loop !47

_ZN14core_hashtableI14ptr_hash_entryIN3smt5enodeEENS1_17theory_array_base8sel_hashENS4_6sel_eqEE8iteratorppEv.exit: ; preds = %land.rhs.i.i
  %cmp.i.not = icmp eq ptr %__begin1.sroa.0.1, %add.ptr.i
  br i1 %cmp.i.not, label %for.end, label %for.body

for.end:                                          ; preds = %while.body.i.i.i, %for.body, %_ZN14core_hashtableI14ptr_hash_entryIN3smt5enodeEENS1_17theory_array_base8sel_hashENS4_6sel_eqEE8iteratorppEv.exit, %while.body.i.i, %_ZNK14core_hashtableI14ptr_hash_entryIN3smt5enodeEENS1_17theory_array_base8sel_hashENS4_6sel_eqEE5beginEv.exit
  ret void
}